; ModuleID = 'source-C-CXX/2/1905.cpp'
source_filename = "source-C-CXX/2/1905.cpp"
target datalayout = "e-m:e-p270:32:32-p271:32:32-p272:64:64-i64:64-f80:128-n8:16:32:64-S128"
target triple = "x86_64-pc-linux-gnu"

%"class.std::ios_base::Init" = type { i8 }
%"class.std::basic_istream" = type { i32 (...)**, i64, %"class.std::basic_ios" }
%"class.std::basic_ios" = type { %"class.std::ios_base", %"class.std::basic_ostream"*, i8, i8, %"class.std::basic_streambuf"*, %"class.std::ctype"*, %"class.std::num_put"*, %"class.std::num_get"* }
%"class.std::ios_base" = type { i32 (...)**, i64, i64, i32, i32, i32, %"struct.std::ios_base::_Callback_list"*, %"struct.std::ios_base::_Words", [8 x %"struct.std::ios_base::_Words"], i32, %"struct.std::ios_base::_Words"*, %"class.std::locale" }
%"struct.std::ios_base::_Callback_list" = type { %"struct.std::ios_base::_Callback_list"*, void (i32, %"class.std::ios_base"*, i32)*, i32, i32 }
%"struct.std::ios_base::_Words" = type { i8*, i64 }
%"class.std::locale" = type { %"class.std::locale::_Impl"* }
%"class.std::locale::_Impl" = type { i32, %"class.std::locale::facet"**, i64, %"class.std::locale::facet"**, i8** }
%"class.std::locale::facet" = type <{ i32 (...)**, i32, [4 x i8] }>
%"class.std::basic_ostream" = type { i32 (...)**, %"class.std::basic_ios" }
%"class.std::basic_streambuf" = type { i32 (...)**, i8*, i8*, i8*, i8*, i8*, i8*, %"class.std::locale" }
%"class.std::ctype" = type <{ %"class.std::locale::facet.base", [4 x i8], %struct.__locale_struct*, i8, [7 x i8], i32*, i32*, i16*, i8, [256 x i8], [256 x i8], i8, [6 x i8] }>
%"class.std::locale::facet.base" = type <{ i32 (...)**, i32 }>
%struct.__locale_struct = type { [13 x %struct.__locale_data*], i16*, i32*, i32*, [13 x i8*] }
%struct.__locale_data = type opaque
%"class.std::num_put" = type { %"class.std::locale::facet.base", [4 x i8] }
%"class.std::num_get" = type { %"class.std::locale::facet.base", [4 x i8] }

@_ZStL8__ioinit = internal global %"class.std::ios_base::Init" zeroinitializer, align 1
@__dso_handle = external hidden global i8
@_ZSt3cin = external global %"class.std::basic_istream", align 8
@_ZSt4cout = external global %"class.std::basic_ostream", align 8
@.str = private unnamed_addr constant [4 x i8] c"yes\00", align 1
@.str.1 = private unnamed_addr constant [3 x i8] c"no\00", align 1
@llvm.global_ctors = appending global [1 x { i32, void ()*, i8* }] [{ i32, void ()*, i8* } { i32 65535, void ()* @_GLOBAL__sub_I_1905.cpp, i8* null }]

declare void @_ZNSt8ios_base4InitC1Ev(%"class.std::ios_base::Init"* nonnull align 1 dereferenceable(1)) unnamed_addr #0

; Function Attrs: nounwind
declare void @_ZNSt8ios_base4InitD1Ev(%"class.std::ios_base::Init"* nonnull align 1 dereferenceable(1)) unnamed_addr #1

; Function Attrs: nofree nounwind
declare i32 @__cxa_atexit(void (i8*)*, i8*, i8*) local_unnamed_addr #2

; Function Attrs: mustprogress norecurse sspstrong uwtable
define dso_local i32 @main() local_unnamed_addr #3 {
  %1 = alloca i32, align 4
  %2 = alloca i32, align 4
  %3 = bitcast i32* %1 to i8*
  call void @llvm.lifetime.start.p0i8(i64 4, i8* nonnull %3) #7
  %4 = bitcast i32* %2 to i8*
  call void @llvm.lifetime.start.p0i8(i64 4, i8* nonnull %4) #7
  %5 = call nonnull align 8 dereferenceable(16) %"class.std::basic_istream"* @_ZNSirsERi(%"class.std::basic_istream"* nonnull align 8 dereferenceable(16) @_ZSt3cin, i32* nonnull align 4 dereferenceable(4) %1)
  %6 = call nonnull align 8 dereferenceable(16) %"class.std::basic_istream"* @_ZNSirsERi(%"class.std::basic_istream"* nonnull align 8 dereferenceable(16) %5, i32* nonnull align 4 dereferenceable(4) %2)
  %7 = load i32, i32* %1, align 4, !tbaa !5
  %8 = zext i32 %7 to i64
  %9 = call i8* @llvm.stacksave()
  %10 = alloca i32, i64 %8, align 16
  %11 = load i32, i32* %1, align 4, !tbaa !5
  %12 = icmp sgt i32 %11, 0
  br i1 %12, label %22, label %97

13:                                               ; preds = %22
  %14 = load i32, i32* %2, align 4
  %15 = icmp sgt i32 %27, 1
  br i1 %15, label %16, label %97

16:                                               ; preds = %13
  %17 = zext i32 %27 to i64
  %18 = add nsw i32 %27, -1
  %19 = zext i32 %18 to i64
  %20 = zext i32 %27 to i64
  %21 = add nsw i64 %20, -2
  br label %36

22:                                               ; preds = %0, %22
  %23 = phi i64 [ %26, %22 ], [ 0, %0 ]
  %24 = getelementptr inbounds i32, i32* %10, i64 %23
  %25 = call nonnull align 8 dereferenceable(16) %"class.std::basic_istream"* @_ZNSirsERi(%"class.std::basic_istream"* nonnull align 8 dereferenceable(16) @_ZSt3cin, i32* nonnull align 4 dereferenceable(4) %24)
  %26 = add nuw nsw i64 %23, 1
  %27 = load i32, i32* %1, align 4, !tbaa !5
  %28 = sext i32 %27 to i64
  %29 = icmp slt i64 %26, %28
  br i1 %29, label %22, label %13, !llvm.loop !9

30:                                               ; preds = %62, %67, %36
  %31 = phi i32 [ %39, %36 ], [ %63, %62 ], [ %92, %67 ]
  %32 = add nuw nsw i64 %38, 1
  %33 = icmp eq i64 %41, %19
  br i1 %33, label %34, label %36, !llvm.loop !11

34:                                               ; preds = %30
  %35 = icmp eq i32 %31, 1
  br i1 %35, label %95, label %97

36:                                               ; preds = %16, %30
  %37 = phi i64 [ 0, %16 ], [ %41, %30 ]
  %38 = phi i64 [ 1, %16 ], [ %32, %30 ]
  %39 = phi i32 [ 0, %16 ], [ %31, %30 ]
  %40 = sub i64 %21, %37
  %41 = add nuw nsw i64 %37, 1
  %42 = icmp ult i64 %41, %17
  br i1 %42, label %43, label %30

43:                                               ; preds = %36
  %44 = xor i64 %37, -1
  %45 = add nsw i64 %44, %20
  %46 = getelementptr inbounds i32, i32* %10, i64 %37
  %47 = load i32, i32* %46, align 4, !tbaa !5
  %48 = and i64 %45, 3
  %49 = icmp eq i64 %48, 0
  br i1 %49, label %62, label %50

50:                                               ; preds = %43, %50
  %51 = phi i64 [ %59, %50 ], [ %38, %43 ]
  %52 = phi i32 [ %58, %50 ], [ %39, %43 ]
  %53 = phi i64 [ %60, %50 ], [ %48, %43 ]
  %54 = getelementptr inbounds i32, i32* %10, i64 %51
  %55 = load i32, i32* %54, align 4, !tbaa !5
  %56 = add nsw i32 %47, %55
  %57 = icmp eq i32 %56, %14
  %58 = select i1 %57, i32 1, i32 %52
  %59 = add nuw nsw i64 %51, 1
  %60 = add i64 %53, -1
  %61 = icmp eq i64 %60, 0
  br i1 %61, label %62, label %50, !llvm.loop !12

62:                                               ; preds = %50, %43
  %63 = phi i32 [ undef, %43 ], [ %58, %50 ]
  %64 = phi i64 [ %38, %43 ], [ %59, %50 ]
  %65 = phi i32 [ %39, %43 ], [ %58, %50 ]
  %66 = icmp ult i64 %40, 3
  br i1 %66, label %30, label %67

67:                                               ; preds = %62, %67
  %68 = phi i64 [ %93, %67 ], [ %64, %62 ]
  %69 = phi i32 [ %92, %67 ], [ %65, %62 ]
  %70 = getelementptr inbounds i32, i32* %10, i64 %68
  %71 = load i32, i32* %70, align 4, !tbaa !5
  %72 = add nsw i32 %47, %71
  %73 = icmp eq i32 %72, %14
  %74 = add nuw nsw i64 %68, 1
  %75 = getelementptr inbounds i32, i32* %10, i64 %74
  %76 = load i32, i32* %75, align 4, !tbaa !5
  %77 = add nsw i32 %47, %76
  %78 = icmp eq i32 %77, %14
  %79 = add nuw nsw i64 %68, 2
  %80 = getelementptr inbounds i32, i32* %10, i64 %79
  %81 = load i32, i32* %80, align 4, !tbaa !5
  %82 = add nsw i32 %47, %81
  %83 = icmp eq i32 %82, %14
  %84 = add nuw nsw i64 %68, 3
  %85 = getelementptr inbounds i32, i32* %10, i64 %84
  %86 = load i32, i32* %85, align 4, !tbaa !5
  %87 = add nsw i32 %47, %86
  %88 = icmp eq i32 %87, %14
  %89 = select i1 %88, i1 true, i1 %83
  %90 = select i1 %89, i1 true, i1 %78
  %91 = select i1 %90, i1 true, i1 %73
  %92 = select i1 %91, i32 1, i32 %69
  %93 = add nuw nsw i64 %68, 4
  %94 = icmp eq i64 %93, %20
  br i1 %94, label %30, label %67, !llvm.loop !14

95:                                               ; preds = %34
  %96 = call nonnull align 8 dereferenceable(8) %"class.std::basic_ostream"* @_ZSt16__ostream_insertIcSt11char_traitsIcEERSt13basic_ostreamIT_T0_ES6_PKS3_l(%"class.std::basic_ostream"* nonnull align 8 dereferenceable(8) @_ZSt4cout, i8* nonnull getelementptr inbounds ([4 x i8], [4 x i8]* @.str, i64 0, i64 0), i64 3)
  br label %99

97:                                               ; preds = %0, %13, %34
  %98 = call nonnull align 8 dereferenceable(8) %"class.std::basic_ostream"* @_ZSt16__ostream_insertIcSt11char_traitsIcEERSt13basic_ostreamIT_T0_ES6_PKS3_l(%"class.std::basic_ostream"* nonnull align 8 dereferenceable(8) @_ZSt4cout, i8* nonnull getelementptr inbounds ([3 x i8], [3 x i8]* @.str.1, i64 0, i64 0), i64 2)
  br label %99

99:                                               ; preds = %97, %95
  call void @llvm.stackrestore(i8* %9)
  call void @llvm.lifetime.end.p0i8(i64 4, i8* nonnull %4) #7
  call void @llvm.lifetime.end.p0i8(i64 4, i8* nonnull %3) #7
  ret i32 0
}

; Function Attrs: argmemonly mustprogress nofree nosync nounwind willreturn
declare void @llvm.lifetime.start.p0i8(i64 immarg, i8* nocapture) #4

declare nonnull align 8 dereferenceable(16) %"class.std::basic_istream"* @_ZNSirsERi(%"class.std::basic_istream"* nonnull align 8 dereferenceable(16), i32* nonnull align 4 dereferenceable(4)) local_unnamed_addr #0

; Function Attrs: mustprogress nofree nosync nounwind willreturn
declare i8* @llvm.stacksave() #5

; Function Attrs: argmemonly mustprogress nofree nosync nounwind willreturn
declare void @llvm.lifetime.end.p0i8(i64 immarg, i8* nocapture) #4

; Function Attrs: mustprogress nofree nosync nounwind willreturn
declare void @llvm.stackrestore(i8*) #5

declare nonnull align 8 dereferenceable(8) %"class.std::basic_ostream"* @_ZSt16__ostream_insertIcSt11char_traitsIcEERSt13basic_ostreamIT_T0_ES6_PKS3_l(%"class.std::basic_ostream"* nonnull align 8 dereferenceable(8), i8*, i64) local_unnamed_addr #0

; Function Attrs: sspstrong uwtable
define internal void @_GLOBAL__sub_I_1905.cpp() #6 section ".text.startup" {
  tail call void @_ZNSt8ios_base4InitC1Ev(%"class.std::ios_base::Init"* nonnull align 1 dereferenceable(1) @_ZStL8__ioinit)
  %1 = tail call i32 @__cxa_atexit(void (i8*)* bitcast (void (%"class.std::ios_base::Init"*)* @_ZNSt8ios_base4InitD1Ev to void (i8*)*), i8* getelementptr inbounds (%"class.std::ios_base::Init", %"class.std::ios_base::Init"* @_ZStL8__ioinit, i64 0, i32 0), i8* nonnull @__dso_handle) #7
  ret void
}


!llvm.module.flags = !{!0, !1, !2, !3}
!llvm.ident = !{!4}

!0 = !{i32 1, !"wchar_size", i32 4}
!1 = !{i32 7, !"PIC Level", i32 2}
!2 = !{i32 7, !"PIE Level", i32 2}
!3 = !{i32 7, !"uwtable", i32 1}
!4 = !{!"clang version 13.0.0"}
!5 = !{!6, !6, i64 0}
!6 = !{!"int", !7, i64 0}
!7 = !{!"omnipotent char", !8, i64 0}
!8 = !{!"Simple C++ TBAA"}
!9 = distinct !{!9, !10}
!10 = !{!"llvm.loop.mustprogress"}
!11 = distinct !{!11, !10}
!12 = distinct !{!12, !13}
!13 = !{!"llvm.loop.unroll.disable"}
!14 = distinct !{!14, !10}
